target datalayout = "e-m:e-p270:32:32-p271:32:32-p272:64:64-i64:64-i128:128-f80:128-n8:16:32:64-S128"
target triple = "x86_64-pc-linux-gnu"

%"class.gmx::analysismodules::(anonymous namespace)::Trajectory" = type { %"class.gmx::TrajectoryAnalysisModule", %"class.std::vector", %"class.std::__cxx11::basic_string", %"class.std::__cxx11::basic_string", %"class.std::__cxx11::basic_string", %"struct.std::array", %"struct.std::array", %"class.gmx::AnalysisData", %"class.gmx::AnalysisData", %"class.gmx::AnalysisData" }
%"class.gmx::TrajectoryAnalysisModule" = type { ptr, %"class.std::unique_ptr.2" }
%"class.std::unique_ptr.2" = type { %"struct.std::__uniq_ptr_data.3" }
%"struct.std::__uniq_ptr_data.3" = type { %"class.std::__uniq_ptr_impl.4" }
%"class.std::__uniq_ptr_impl.4" = type { %"class.std::tuple.5" }
%"class.std::tuple.5" = type { %"struct.std::_Tuple_impl.6" }
%"struct.std::_Tuple_impl.6" = type { %"struct.std::_Head_base.9" }
%"struct.std::_Head_base.9" = type { ptr }
%"class.std::vector" = type { %"struct.std::_Vector_base" }
%"struct.std::_Vector_base" = type { %"struct.std::_Vector_base<gmx::Selection, std::allocator<gmx::Selection>>::_Vector_impl" }
%"struct.std::_Vector_base<gmx::Selection, std::allocator<gmx::Selection>>::_Vector_impl" = type { %"struct.std::_Vector_base<gmx::Selection, std::allocator<gmx::Selection>>::_Vector_impl_data" }
%"struct.std::_Vector_base<gmx::Selection, std::allocator<gmx::Selection>>::_Vector_impl_data" = type { ptr, ptr, ptr }
%"class.std::__cxx11::basic_string" = type { %"struct.std::__cxx11::basic_string<char>::_Alloc_hider", i64, %union.anon }
%"struct.std::__cxx11::basic_string<char>::_Alloc_hider" = type { ptr }
%union.anon = type { i64, [8 x i8] }
%"struct.std::array" = type { [4 x i8] }
%"class.gmx::AnalysisData" = type { %"class.gmx::AbstractAnalysisData", %"class.std::unique_ptr.21" }
%"class.gmx::AbstractAnalysisData" = type { ptr, %"class.std::unique_ptr.13" }
%"class.std::unique_ptr.13" = type { %"struct.std::__uniq_ptr_data.14" }
%"struct.std::__uniq_ptr_data.14" = type { %"class.std::__uniq_ptr_impl.15" }
%"class.std::__uniq_ptr_impl.15" = type { %"class.std::tuple.16" }
%"class.std::tuple.16" = type { %"struct.std::_Tuple_impl.17" }
%"struct.std::_Tuple_impl.17" = type { %"struct.std::_Head_base.20" }
%"struct.std::_Head_base.20" = type { ptr }
%"class.std::unique_ptr.21" = type { %"struct.std::__uniq_ptr_data.22" }
%"struct.std::__uniq_ptr_data.22" = type { %"class.std::__uniq_ptr_impl.23" }
%"class.std::__uniq_ptr_impl.23" = type { %"class.std::tuple.24" }
%"class.std::tuple.24" = type { %"struct.std::_Tuple_impl.25" }
%"struct.std::_Tuple_impl.25" = type { %"struct.std::_Head_base.28" }
%"struct.std::_Head_base.28" = type { ptr }
%"struct.__gnu_cxx::__ops::_Iter_equals_val" = type { ptr }

; Function Attrs: mustprogress nounwind uwtable
define linkonce_odr noundef ptr @_ZNSt14__array_traitsIbLm4EE6_S_ptrERA4_Kb(ptr noundef nonnull align 1 dereferenceable(4) %0) #3 comdat align 2 {
  %2 = alloca ptr, align 8
  store ptr %0, ptr %2, align 8, !tbaa !125
  %3 = load ptr, ptr %2, align 8, !tbaa !125
  %4 = getelementptr inbounds [4 x i8], ptr %3, i64 0, i64 0
  ret ptr %4
}

; Function Attrs: mustprogress nounwind uwtable
define linkonce_odr noundef zeroext i1 @_ZN9__gnu_cxx5__ops16_Iter_equals_valIKbEclIPbEEbT_(ptr noundef nonnull align 8 dereferenceable(8) %0, ptr noundef %1) #3 comdat align 2 {
  %3 = alloca ptr, align 8
  %4 = alloca ptr, align 8
  store ptr %0, ptr %3, align 8, !tbaa !164
  store ptr %1, ptr %4, align 8, !tbaa !125
  %5 = load ptr, ptr %3, align 8
  %6 = load ptr, ptr %4, align 8, !tbaa !125
  %7 = load i8, ptr %6, align 1, !tbaa !11, !range !31, !noundef !32
  %8 = trunc i8 %7 to i1
  %9 = zext i1 %8 to i32
  %10 = getelementptr inbounds nuw %"struct.__gnu_cxx::__ops::_Iter_equals_val", ptr %5, i32 0, i32 0
  %11 = load ptr, ptr %10, align 8, !tbaa !166
  %12 = load i8, ptr %11, align 1, !tbaa !11, !range !31, !noundef !32
  %13 = trunc i8 %12 to i1
  %14 = zext i1 %13 to i32
  %15 = icmp eq i32 %9, %14
  ret i1 %15
}

; Function Attrs: mustprogress nounwind uwtable
define linkonce_odr void @_ZN9__gnu_cxx5__ops16_Iter_equals_valIKbEC2ERS2_(ptr noundef nonnull align 8 dereferenceable(8) %0, ptr noundef nonnull align 1 dereferenceable(1) %1) unnamed_addr #3 comdat align 2 {
  %3 = alloca ptr, align 8
  %4 = alloca ptr, align 8
  store ptr %0, ptr %3, align 8, !tbaa !164
  store ptr %1, ptr %4, align 8, !tbaa !125
  %5 = load ptr, ptr %3, align 8
  %6 = getelementptr inbounds nuw %"struct.__gnu_cxx::__ops::_Iter_equals_val", ptr %5, i32 0, i32 0
  %7 = load ptr, ptr %4, align 8, !tbaa !125
  store ptr %7, ptr %6, align 8, !tbaa !125
  ret void
}

; Function Attrs: mustprogress nounwind willreturn memory(none) uwtable
define linkonce_odr noundef ptr @_ZNSt5arrayIbLm4EE4dataEv(ptr noundef nonnull align 1 dereferenceable(4) %0) #14 comdat align 2 {
  %2 = alloca ptr, align 8
  store ptr %0, ptr %2, align 8, !tbaa !129
  %3 = load ptr, ptr %2, align 8
  %4 = getelementptr inbounds nuw %"struct.std::array", ptr %3, i32 0, i32 0
  %5 = call noundef ptr @_ZNSt14__array_traitsIbLm4EE6_S_ptrERA4_Kb(ptr noundef nonnull align 1 dereferenceable(4) %4) #20
  ret ptr %5
}

; Function Attrs: mustprogress nounwind uwtable
define linkonce_odr noundef nonnull align 1 dereferenceable(1) ptr @_ZNSt14__array_traitsIbLm4EE6_S_refERA4_Kbm(ptr noundef nonnull align 1 dereferenceable(4) %0, i64 noundef %1) #3 comdat align 2 {
  %3 = alloca ptr, align 8
  %4 = alloca i64, align 8
  store ptr %0, ptr %3, align 8, !tbaa !125
  store i64 %1, ptr %4, align 8, !tbaa !37
  %5 = load ptr, ptr %3, align 8, !tbaa !125
  %6 = load i64, ptr %4, align 8, !tbaa !37
  %7 = getelementptr inbounds nuw [4 x i8], ptr %5, i64 0, i64 %6
  ret ptr %7
}

; Function Attrs: mustprogress uwtable
define linkonce_odr noundef i64 @_ZSt10__count_ifIPbN9__gnu_cxx5__ops16_Iter_equals_valIKbEEENSt15iterator_traitsIT_E15difference_typeES7_S7_T0_(ptr noundef %0, ptr noundef %1, ptr %2) #0 comdat {
  %4 = alloca %"struct.__gnu_cxx::__ops::_Iter_equals_val", align 8
  %5 = alloca ptr, align 8
  %6 = alloca ptr, align 8
  %7 = alloca i64, align 8
  %8 = getelementptr inbounds nuw %"struct.__gnu_cxx::__ops::_Iter_equals_val", ptr %4, i32 0, i32 0
  store ptr %2, ptr %8, align 8
  store ptr %0, ptr %5, align 8, !tbaa !125
  store ptr %1, ptr %6, align 8, !tbaa !125
  call void @llvm.lifetime.start.p0(i64 8, ptr %7) #20
  store i64 0, ptr %7, align 8, !tbaa !37
  br label %9

9:                                                ; preds = %20, %3
  %10 = load ptr, ptr %5, align 8, !tbaa !125
  %11 = load ptr, ptr %6, align 8, !tbaa !125
  %12 = icmp ne ptr %10, %11
  br i1 %12, label %13, label %23

13:                                               ; preds = %9
  %14 = load ptr, ptr %5, align 8, !tbaa !125
  %15 = call noundef zeroext i1 @_ZN9__gnu_cxx5__ops16_Iter_equals_valIKbEclIPbEEbT_(ptr noundef nonnull align 8 dereferenceable(8) %4, ptr noundef %14)
  br i1 %15, label %16, label %19

16:                                               ; preds = %13
  %17 = load i64, ptr %7, align 8, !tbaa !37
  %18 = add nsw i64 %17, 1
  store i64 %18, ptr %7, align 8, !tbaa !37
  br label %19

19:                                               ; preds = %16, %13
  br label %20

20:                                               ; preds = %19
  %21 = load ptr, ptr %5, align 8, !tbaa !125
  %22 = getelementptr inbounds nuw i8, ptr %21, i32 1
  store ptr %22, ptr %5, align 8, !tbaa !125
  br label %9, !llvm.loop !163

23:                                               ; preds = %9
  %24 = load i64, ptr %7, align 8, !tbaa !37
  call void @llvm.lifetime.end.p0(i64 8, ptr %7) #20
  ret i64 %24
}

; Function Attrs: inlinehint mustprogress uwtable
define linkonce_odr ptr @_ZN9__gnu_cxx5__ops17__iter_equals_valIKbEENS0_16_Iter_equals_valIT_EERS4_(ptr noundef nonnull align 1 dereferenceable(1) %0) #11 comdat {
  %2 = alloca %"struct.__gnu_cxx::__ops::_Iter_equals_val", align 8
  %3 = alloca ptr, align 8
  store ptr %0, ptr %3, align 8, !tbaa !125
  %4 = load ptr, ptr %3, align 8, !tbaa !125
  call void @_ZN9__gnu_cxx5__ops16_Iter_equals_valIKbEC2ERS2_(ptr noundef nonnull align 8 dereferenceable(8) %2, ptr noundef nonnull align 1 dereferenceable(1) %4)
  %5 = getelementptr inbounds nuw %"struct.__gnu_cxx::__ops::_Iter_equals_val", ptr %2, i32 0, i32 0
  %6 = load ptr, ptr %5, align 8
  ret ptr %6
}

; Function Attrs: mustprogress nounwind willreturn memory(none) uwtable
define linkonce_odr noundef ptr @_ZNSt5arrayIbLm4EE3endEv(ptr noundef nonnull align 1 dereferenceable(4) %0) #14 comdat align 2 {
  %2 = alloca ptr, align 8
  store ptr %0, ptr %2, align 8, !tbaa !129
  %3 = load ptr, ptr %2, align 8
  %4 = call noundef ptr @_ZNSt5arrayIbLm4EE4dataEv(ptr noundef nonnull align 1 dereferenceable(4) %3) #23
  %5 = getelementptr inbounds nuw i8, ptr %4, i64 4
  ret ptr %5
}

; Function Attrs: mustprogress nounwind willreturn memory(none) uwtable
define linkonce_odr noundef ptr @_ZNSt5arrayIbLm4EE5beginEv(ptr noundef nonnull align 1 dereferenceable(4) %0) #14 comdat align 2 {
  %2 = alloca ptr, align 8
  store ptr %0, ptr %2, align 8, !tbaa !129
  %3 = load ptr, ptr %2, align 8
  %4 = call noundef ptr @_ZNSt5arrayIbLm4EE4dataEv(ptr noundef nonnull align 1 dereferenceable(4) %3) #23
  ret ptr %4
}

; Function Attrs: mustprogress nounwind uwtable
define available_externally noundef i64 @_ZNKSt7__cxx1112basic_stringIcSt11char_traitsIcESaIcEE4sizeEv(ptr noundef nonnull align 8 dereferenceable(32) %0) #3 align 2 {
  %2 = alloca ptr, align 8
  store ptr %0, ptr %2, align 8, !tbaa !19
  %3 = load ptr, ptr %2, align 8
  %4 = getelementptr inbounds nuw %"class.std::__cxx11::basic_string", ptr %3, i32 0, i32 1
  %5 = load i64, ptr %4, align 8, !tbaa !78
  ret i64 %5
}

; Function Attrs: mustprogress nounwind uwtable
define linkonce_odr noundef nonnull align 1 dereferenceable(1) ptr @_ZNSt5arrayIbLm4EEixEm(ptr noundef nonnull align 1 dereferenceable(4) %0, i64 noundef %1) #3 comdat align 2 {
  %3 = alloca ptr, align 8
  %4 = alloca i64, align 8
  store ptr %0, ptr %3, align 8, !tbaa !129
  store i64 %1, ptr %4, align 8, !tbaa !37
  %5 = load ptr, ptr %3, align 8
  %6 = getelementptr inbounds nuw %"struct.std::array", ptr %5, i32 0, i32 0
  %7 = load i64, ptr %4, align 8, !tbaa !37
  %8 = call noundef nonnull align 1 dereferenceable(1) ptr @_ZNSt14__array_traitsIbLm4EE6_S_refERA4_Kbm(ptr noundef nonnull align 1 dereferenceable(4) %6, i64 noundef %7) #20
  ret ptr %8
}

; Function Attrs: inlinehint mustprogress uwtable
define linkonce_odr noundef i64 @_ZSt5countIPbbENSt15iterator_traitsIT_E15difference_typeES2_S2_RKT0_(ptr noundef %0, ptr noundef %1, ptr noundef nonnull align 1 dereferenceable(1) %2) #11 comdat {
  %4 = alloca ptr, align 8
  %5 = alloca ptr, align 8
  %6 = alloca ptr, align 8
  %7 = alloca %"struct.__gnu_cxx::__ops::_Iter_equals_val", align 8
  store ptr %0, ptr %4, align 8, !tbaa !125
  store ptr %1, ptr %5, align 8, !tbaa !125
  store ptr %2, ptr %6, align 8, !tbaa !125
  %8 = load ptr, ptr %4, align 8, !tbaa !125
  %9 = load ptr, ptr %5, align 8, !tbaa !125
  %10 = load ptr, ptr %6, align 8, !tbaa !125
  %11 = call ptr @_ZN9__gnu_cxx5__ops17__iter_equals_valIKbEENS0_16_Iter_equals_valIT_EERS4_(ptr noundef nonnull align 1 dereferenceable(1) %10)
  %12 = getelementptr inbounds nuw %"struct.__gnu_cxx::__ops::_Iter_equals_val", ptr %7, i32 0, i32 0
  store ptr %11, ptr %12, align 8
  %13 = getelementptr inbounds nuw %"struct.__gnu_cxx::__ops::_Iter_equals_val", ptr %7, i32 0, i32 0
  %14 = load ptr, ptr %13, align 8
  %15 = call noundef i64 @_ZSt10__count_ifIPbN9__gnu_cxx5__ops16_Iter_equals_valIKbEEENSt15iterator_traitsIT_E15difference_typeES7_S7_T0_(ptr noundef %8, ptr noundef %9, ptr %14)
  ret i64 %15
}

; Function Attrs: inlinehint mustprogress nounwind uwtable
define linkonce_odr noundef ptr @_ZSt3endISt5arrayIbLm4EEEDTcldtfp_3endEERT_(ptr noundef nonnull align 1 dereferenceable(4) %0) #7 comdat {
  %2 = alloca ptr, align 8
  store ptr %0, ptr %2, align 8, !tbaa !129
  %3 = load ptr, ptr %2, align 8, !tbaa !129
  %4 = call noundef ptr @_ZNSt5arrayIbLm4EE3endEv(ptr noundef nonnull align 1 dereferenceable(4) %3) #23
  ret ptr %4
}

; Function Attrs: inlinehint mustprogress nounwind uwtable
define linkonce_odr noundef ptr @_ZSt5beginISt5arrayIbLm4EEEDTcldtfp_5beginEERT_(ptr noundef nonnull align 1 dereferenceable(4) %0) #7 comdat {
  %2 = alloca ptr, align 8
  store ptr %0, ptr %2, align 8, !tbaa !129
  %3 = load ptr, ptr %2, align 8, !tbaa !129
  %4 = call noundef ptr @_ZNSt5arrayIbLm4EE5beginEv(ptr noundef nonnull align 1 dereferenceable(4) %3) #23
  ret ptr %4
}

; Function Attrs: mustprogress nounwind uwtable
define available_externally noundef zeroext i1 @_ZNKSt7__cxx1112basic_stringIcSt11char_traitsIcESaIcEE5emptyEv(ptr noundef nonnull align 8 dereferenceable(32) %0) #3 align 2 {
  %2 = alloca ptr, align 8
  store ptr %0, ptr %2, align 8, !tbaa !19
  %3 = load ptr, ptr %2, align 8
  %4 = call noundef i64 @_ZNKSt7__cxx1112basic_stringIcSt11char_traitsIcESaIcEE4sizeEv(ptr noundef nonnull align 8 dereferenceable(32) %3) #20
  %5 = icmp eq i64 %4, 0
  ret i1 %5
}

; Function Attrs: mustprogress uwtable
define internal void @_ZN3gmx15analysismodules12_GLOBAL__N_110Trajectory15optionsFinishedEPNS_26TrajectoryAnalysisSettingsE(ptr noundef nonnull align 8 dereferenceable(216) %0, ptr noundef %1) unnamed_addr #0 align 2 {
  %3 = alloca ptr, align 8
  %4 = alloca ptr, align 8
  %5 = alloca i32, align 4
  %6 = alloca i8, align 1
  %7 = alloca i32, align 4
  store ptr %0, ptr %3, align 8, !tbaa !4
  store ptr %1, ptr %4, align 8, !tbaa !27
  %8 = load ptr, ptr %3, align 8
  call void @llvm.lifetime.start.p0(i64 4, ptr %5) #20
  store i32 2, ptr %5, align 4, !tbaa !29
  %9 = getelementptr inbounds nuw %"class.gmx::analysismodules::(anonymous namespace)::Trajectory", ptr %8, i32 0, i32 3
  %10 = call noundef zeroext i1 @_ZNKSt7__cxx1112basic_stringIcSt11char_traitsIcESaIcEE5emptyEv(ptr noundef nonnull align 8 dereferenceable(32) %9) #20
  br i1 %10, label %14, label %11

11:                                               ; preds = %2
  %12 = load i32, ptr %5, align 4, !tbaa !29
  %13 = or i32 %12, 4
  store i32 %13, ptr %5, align 4, !tbaa !29
  br label %14

14:                                               ; preds = %11, %2
  %15 = getelementptr inbounds nuw %"class.gmx::analysismodules::(anonymous namespace)::Trajectory", ptr %8, i32 0, i32 4
  %16 = call noundef zeroext i1 @_ZNKSt7__cxx1112basic_stringIcSt11char_traitsIcESaIcEE5emptyEv(ptr noundef nonnull align 8 dereferenceable(32) %15) #20
  br i1 %16, label %20, label %17

17:                                               ; preds = %14
  %18 = load i32, ptr %5, align 4, !tbaa !29
  %19 = or i32 %18, 16
  store i32 %19, ptr %5, align 4, !tbaa !29
  br label %20

20:                                               ; preds = %17, %14
  %21 = load ptr, ptr %4, align 8, !tbaa !27
  %22 = load i32, ptr %5, align 4, !tbaa !29
  call void @_ZN3gmx26TrajectoryAnalysisSettings13setFrameFlagsEi(ptr noundef nonnull align 8 dereferenceable(8) %21, i32 noundef %22)
  %23 = getelementptr inbounds nuw %"class.gmx::analysismodules::(anonymous namespace)::Trajectory", ptr %8, i32 0, i32 6
  %24 = call noundef ptr @_ZSt5beginISt5arrayIbLm4EEEDTcldtfp_5beginEERT_(ptr noundef nonnull align 1 dereferenceable(4) %23)
  %25 = getelementptr inbounds nuw %"class.gmx::analysismodules::(anonymous namespace)::Trajectory", ptr %8, i32 0, i32 6
  %26 = call noundef ptr @_ZSt3endISt5arrayIbLm4EEEDTcldtfp_3endEERT_(ptr noundef nonnull align 1 dereferenceable(4) %25)
  call void @llvm.lifetime.start.p0(i64 1, ptr %6) #20
  store i8 1, ptr %6, align 1, !tbaa !11
  %27 = call noundef i64 @_ZSt5countIPbbENSt15iterator_traitsIT_E15difference_typeES2_S2_RKT0_(ptr noundef %24, ptr noundef %26, ptr noundef nonnull align 1 dereferenceable(1) %6)
  %28 = icmp sgt i64 %27, 0
  call void @llvm.lifetime.end.p0(i64 1, ptr %6) #20
  br i1 %28, label %29, label %51

29:                                               ; preds = %20
  call void @llvm.lifetime.start.p0(i64 4, ptr %7) #20
  store i32 0, ptr %7, align 4, !tbaa !29
  br label %30

30:                                               ; preds = %47, %29
  %31 = load i32, ptr %7, align 4, !tbaa !29
  %32 = icmp sle i32 %31, 3
  br i1 %32, label %34, label %33

33:                                               ; preds = %30
  call void @llvm.lifetime.end.p0(i64 4, ptr %7) #20
  br label %50

34:                                               ; preds = %30
  %35 = getelementptr inbounds nuw %"class.gmx::analysismodules::(anonymous namespace)::Trajectory", ptr %8, i32 0, i32 6
  %36 = load i32, ptr %7, align 4, !tbaa !29
  %37 = sext i32 %36 to i64
  %38 = call noundef nonnull align 1 dereferenceable(1) ptr @_ZNSt5arrayIbLm4EEixEm(ptr noundef nonnull align 1 dereferenceable(4) %35, i64 noundef %37) #20
  %39 = load i8, ptr %38, align 1, !tbaa !11, !range !31, !noundef !32
  %40 = trunc i8 %39 to i1
  br i1 %40, label %46, label %41

41:                                               ; preds = %34
  %42 = getelementptr inbounds nuw %"class.gmx::analysismodules::(anonymous namespace)::Trajectory", ptr %8, i32 0, i32 5
  %43 = load i32, ptr %7, align 4, !tbaa !29
  %44 = sext i32 %43 to i64
  %45 = call noundef nonnull align 1 dereferenceable(1) ptr @_ZNSt5arrayIbLm4EEixEm(ptr noundef nonnull align 1 dereferenceable(4) %42, i64 noundef %44) #20
  store i8 0, ptr %45, align 1, !tbaa !11
  br label %46

46:                                               ; preds = %41, %34
  br label %47

47:                                               ; preds = %46
  %48 = load i32, ptr %7, align 4, !tbaa !29
  %49 = add nsw i32 %48, 1
  store i32 %49, ptr %7, align 4, !tbaa !29
  br label %30, !llvm.loop !33

50:                                               ; preds = %33
  br label %51

51:                                               ; preds = %50, %20
  call void @llvm.lifetime.end.p0(i64 4, ptr %5) #20
  ret void
}