; Function Attrs: mustprogress uwtable
define internal void @_ZN3gmx15analysismodules12_GLOBAL__N_110Trajectory15optionsFinishedEPNS_26TrajectoryAnalysisSettingsE(ptr noundef nonnull align 8 captures(none) dereferenceable(216) %0, ptr noundef nonnull %1) unnamed_addr #0 align 2 {
  %3 = getelementptr inbounds nuw i8, ptr %0, i64 80
  %4 = load i64, ptr %3, align 8, !tbaa !12
  %5 = icmp eq i64 %4, 0
  %spec.select = select i1 %5, i32 2, i32 6
  %6 = getelementptr inbounds nuw i8, ptr %0, i64 112
  %7 = load i64, ptr %6, align 8, !tbaa !12
  %8 = icmp eq i64 %7, 0
  %9 = or disjoint i32 %spec.select, 16
  %.1 = select i1 %8, i32 %spec.select, i32 %9
  tail call void @_ZN3gmx26TrajectoryAnalysisSettings13setFrameFlagsEi(ptr noundef nonnull align 8 dereferenceable(8) %1, i32 noundef %.1)
  br label %10

10:                                               ; preds = %10, %2
  %.08.i.i = phi i64 [ 0, %2 ], [ %spec.select.i.i, %10 ]
  %.057.i.i.idx = phi i64 [ 140, %2 ], [ %.057.i.i.add, %10 ]
  %.057.i.i.ptr = getelementptr inbounds nuw i8, ptr %0, i64 %.057.i.i.idx
  %11 = load i8, ptr %.057.i.i.ptr, align 1, !tbaa !16, !range !61, !noundef !62
  %12 = zext nneg i8 %11 to i64
  %spec.select.i.i = add nuw nsw i64 %.08.i.i, %12
  %.057.i.i.add = add nuw nsw i64 %.057.i.i.idx, 1
  %.not.i.i = icmp eq i64 %.057.i.i.add, 144
  br i1 %.not.i.i, label %_ZSt5countIPbbENSt15iterator_traitsIT_E15difference_typeES2_S2_RKT0_.exit, label %10, !llvm.loop !63

_ZSt5countIPbbENSt15iterator_traitsIT_E15difference_typeES2_S2_RKT0_.exit: ; preds = %10
  %.ptr9 = getelementptr inbounds nuw i8, ptr %0, i64 140
  %.not = icmp eq i64 %spec.select.i.i, 0
  br i1 %.not, label %.loopexit, label %.preheader

.preheader:                                       ; preds = %_ZSt5countIPbbENSt15iterator_traitsIT_E15difference_typeES2_S2_RKT0_.exit
  %13 = getelementptr inbounds nuw i8, ptr %0, i64 136
  br label %14

14:                                               ; preds = %.preheader, %20
  %indvars.iv = phi i64 [ 0, %.preheader ], [ %indvars.iv.next, %20 ]
  %15 = getelementptr inbounds nuw [4 x i8], ptr %.ptr9, i64 0, i64 %indvars.iv
  %16 = load i8, ptr %15, align 1, !tbaa !16, !range !61, !noundef !62
  %17 = trunc nuw i8 %16 to i1
  br i1 %17, label %20, label %18

18:                                               ; preds = %14
  %19 = getelementptr inbounds nuw [4 x i8], ptr %13, i64 0, i64 %indvars.iv
  store i8 0, ptr %19, align 1, !tbaa !16
  br label %20

20:                                               ; preds = %14, %18
  %indvars.iv.next = add nuw nsw i64 %indvars.iv, 1
  %exitcond.not = icmp eq i64 %indvars.iv.next, 4
  br i1 %exitcond.not, label %.loopexit, label %14, !llvm.loop !65

.loopexit:                                        ; preds = %20, %_ZSt5countIPbbENSt15iterator_traitsIT_E15difference_typeES2_S2_RKT0_.exit
  ret void
}